target datalayout = "e-m:e-p270:32:32-p271:32:32-p272:64:64-i64:64-i128:128-f80:128-n8:16:32:64-S128"
target triple = "x86_64-pc-linux-gnu"

%struct.SampleScanState = type { %struct.ScanState, ptr, ptr, ptr, ptr, i8, i8, i8, i32, i64, i8, i8 }
%struct.ScanState = type { %struct.PlanState, ptr, ptr, ptr }
%struct.PlanState = type { i32, ptr, ptr, ptr, ptr, ptr, ptr, ptr, ptr, ptr, ptr, ptr, ptr, ptr, ptr, ptr, ptr, ptr, i8, ptr, ptr, ptr, ptr, ptr, i8, i8, i8, i8, i8, i8, i8, i8 }
%struct.RelationData = type { %struct.RelFileLocator, ptr, i32, i32, i8, i8, i8, i8, i8, i32, i32, i32, i32, ptr, ptr, i32, %struct.LockInfoData, ptr, ptr, ptr, ptr, ptr, i8, ptr, ptr, ptr, ptr, ptr, ptr, i32, ptr, i8, ptr, ptr, i32, i8, i32, ptr, i8, ptr, ptr, ptr, ptr, ptr, ptr, ptr, i32, ptr, ptr, ptr, ptr, ptr, ptr, ptr, ptr, ptr, ptr, ptr, ptr, ptr, ptr, ptr, ptr, ptr, ptr, ptr, i32, i8, ptr }
%struct.RelFileLocator = type { i32, i32, i32 }
%struct.LockInfoData = type { %struct.LockRelId }
%struct.LockRelId = type { i32, i32 }
%struct.TsmRoutine = type { i32, ptr, i8, i8, ptr, ptr, ptr, ptr, ptr, ptr }
%struct.TableScanDescData = type { ptr, ptr, i32, ptr, %union.anon, i32, ptr }
%union.anon = type { %struct.TBMIterator }
%struct.TBMIterator = type { i8, %union.anon.0 }
%union.anon.0 = type { ptr }
%struct.TableAmRoutine = type { i32, ptr, ptr, ptr, ptr, ptr, ptr, ptr, ptr, ptr, ptr, ptr, ptr, ptr, ptr, ptr, ptr, ptr, ptr, ptr, ptr, ptr, ptr, ptr, ptr, ptr, ptr, ptr, ptr, ptr, ptr, ptr, ptr, ptr, ptr, ptr, ptr, ptr, ptr, ptr, ptr, ptr, ptr, ptr, ptr, ptr }

; Function Attrs: inlinehint nounwind uwtable
define internal void @table_endscan(ptr noundef %0) #2 {
  %2 = alloca ptr, align 8
  store ptr %0, ptr %2, align 8
  %3 = load ptr, ptr %2, align 8
  %4 = getelementptr inbounds nuw %struct.TableScanDescData, ptr %3, i32 0, i32 0
  %5 = load ptr, ptr %4, align 8
  %6 = getelementptr inbounds nuw %struct.RelationData, ptr %5, i32 0, i32 47
  %7 = load ptr, ptr %6, align 8
  %8 = getelementptr inbounds nuw %struct.TableAmRoutine, ptr %7, i32 0, i32 3
  %9 = load ptr, ptr %8, align 8
  %10 = load ptr, ptr %2, align 8
  call void %9(ptr noundef %10)
  ret void
}

; Function Attrs: nounwind uwtable
define dso_local void @ExecEndSampleScan(ptr noundef %0) #0 {
  %2 = alloca ptr, align 8
  store ptr %0, ptr %2, align 8
  %3 = load ptr, ptr %2, align 8
  %4 = getelementptr inbounds nuw %struct.SampleScanState, ptr %3, i32 0, i32 3
  %5 = load ptr, ptr %4, align 8
  %6 = getelementptr inbounds nuw %struct.TsmRoutine, ptr %5, i32 0, i32 9
  %7 = load ptr, ptr %6, align 8
  %8 = icmp ne ptr %7, null
  br i1 %8, label %9, label %16

9:                                                ; preds = %1
  %10 = load ptr, ptr %2, align 8
  %11 = getelementptr inbounds nuw %struct.SampleScanState, ptr %10, i32 0, i32 3
  %12 = load ptr, ptr %11, align 8
  %13 = getelementptr inbounds nuw %struct.TsmRoutine, ptr %12, i32 0, i32 9
  %14 = load ptr, ptr %13, align 8
  %15 = load ptr, ptr %2, align 8
  call void %14(ptr noundef %15)
  br label %16

16:                                               ; preds = %9, %1
  %17 = load ptr, ptr %2, align 8
  %18 = getelementptr inbounds nuw %struct.SampleScanState, ptr %17, i32 0, i32 0
  %19 = getelementptr inbounds nuw %struct.ScanState, ptr %18, i32 0, i32 2
  %20 = load ptr, ptr %19, align 8
  %21 = icmp ne ptr %20, null
  br i1 %21, label %22, label %27

22:                                               ; preds = %16
  %23 = load ptr, ptr %2, align 8
  %24 = getelementptr inbounds nuw %struct.SampleScanState, ptr %23, i32 0, i32 0
  %25 = getelementptr inbounds nuw %struct.ScanState, ptr %24, i32 0, i32 2
  %26 = load ptr, ptr %25, align 8
  call void @table_endscan(ptr noundef %26)
  br label %27

27:                                               ; preds = %22, %16
  ret void
}