; Function Attrs: nounwind uwtable
define dso_local void @ExecEndSampleScan(ptr noundef %0) local_unnamed_addr #0 {
  %2 = getelementptr inbounds nuw i8, ptr %0, i64 240
  %3 = load ptr, ptr %2, align 8
  %4 = getelementptr inbounds nuw i8, ptr %3, i64 64
  %5 = load ptr, ptr %4, align 8
  %.not = icmp eq ptr %5, null
  br i1 %.not, label %7, label %6

6:                                                ; preds = %1
  tail call void %5(ptr noundef nonnull %0) #6
  br label %7

7:                                                ; preds = %6, %1
  %8 = getelementptr inbounds nuw i8, ptr %0, i64 208
  %9 = load ptr, ptr %8, align 8
  %.not6 = icmp eq ptr %9, null
  br i1 %.not6, label %16, label %10

10:                                               ; preds = %7
  %11 = load ptr, ptr %9, align 8
  %12 = getelementptr inbounds nuw i8, ptr %11, i64 320
  %13 = load ptr, ptr %12, align 8
  %14 = getelementptr inbounds nuw i8, ptr %13, i64 24
  %15 = load ptr, ptr %14, align 8
  tail call void %15(ptr noundef nonnull %9) #6
  br label %16

16:                                               ; preds = %10, %7
  ret void
}